target datalayout = "e-m:e-p270:32:32-p271:32:32-p272:64:64-i64:64-i128:128-f80:128-n8:16:32:64-S128"
target triple = "x86_64-pc-linux-gnu"

%struct.ObjectAddress = type { i32, i32, i32 }
%struct.nameData = type { [64 x i8] }
%struct.HeapTupleData = type { i32, %struct.ItemPointerData, i32, ptr }
%struct.ItemPointerData = type { %struct.BlockIdData, i16 }
%struct.BlockIdData = type { i16, i16 }
%struct.HeapTupleHeaderData = type { %union.anon, %struct.ItemPointerData, i16, i16, i8, [0 x i8] }
%union.anon = type { %struct.HeapTupleFields }
%struct.HeapTupleFields = type { i32, i32, %union.anon.1 }
%union.anon.1 = type { i32 }
%struct.ScanKeyData = type { i32, i16, i16, i32, i32, %struct.FmgrInfo, i64 }
%struct.FmgrInfo = type { ptr, i32, i16, i8, i8, i8, ptr, ptr, ptr }
%struct.FormData_pg_ts_config = type { i32, %struct.nameData, i32, i32, i32 }
%struct.FormData_pg_ts_config_map = type { i32, i32, i32, i32 }

; Function Attrs: inlinehint nounwind uwtable
define internal i64 @ObjectIdGetDatum(i32 noundef %0) #5 {
  %2 = alloca i32, align 4
  store i32 %0, ptr %2, align 4
  %3 = load i32, ptr %2, align 4
  %4 = zext i32 %3 to i64
  ret i64 %4
}

; Function Attrs: inlinehint nounwind uwtable
define internal ptr @GETSTRUCT(ptr noundef %0) #5 {
  %2 = alloca ptr, align 8
  store ptr %0, ptr %2, align 8
  %3 = load ptr, ptr %2, align 8
  %4 = getelementptr inbounds nuw %struct.HeapTupleData, ptr %3, i32 0, i32 3
  %5 = load ptr, ptr %4, align 8
  %6 = load ptr, ptr %2, align 8
  %7 = getelementptr inbounds nuw %struct.HeapTupleData, ptr %6, i32 0, i32 3
  %8 = load ptr, ptr %7, align 8
  %9 = getelementptr inbounds nuw %struct.HeapTupleHeaderData, ptr %8, i32 0, i32 4
  %10 = load i8, ptr %9, align 2
  %11 = zext i8 %10 to i32
  %12 = sext i32 %11 to i64
  %13 = getelementptr inbounds i8, ptr %5, i64 %12
  ret ptr %13
}

; Function Attrs: nounwind uwtable
define internal { i64, i32 } @makeConfigurationDependencies(ptr noundef %0, i1 noundef zeroext %1, ptr noundef %2) #0 {
  %4 = alloca %struct.ObjectAddress, align 4
  %5 = alloca ptr, align 8
  %6 = alloca i8, align 1
  %7 = alloca ptr, align 8
  %8 = alloca ptr, align 8
  %9 = alloca ptr, align 8
  %10 = alloca %struct.ObjectAddress, align 4
  %11 = alloca %struct.ScanKeyData, align 8
  %12 = alloca ptr, align 8
  %13 = alloca ptr, align 8
  %14 = alloca ptr, align 8
  %15 = alloca { i64, i32 }, align 8
  store ptr %0, ptr %5, align 8
  %16 = zext i1 %1 to i8
  store i8 %16, ptr %6, align 1
  store ptr %2, ptr %7, align 8
  call void @llvm.lifetime.start.p0(i64 8, ptr %8) #10
  %17 = load ptr, ptr %5, align 8
  %18 = call ptr @GETSTRUCT(ptr noundef %17)
  store ptr %18, ptr %8, align 8
  call void @llvm.lifetime.start.p0(i64 8, ptr %9) #10
  call void @llvm.lifetime.start.p0(i64 12, ptr %10) #10
  %19 = getelementptr inbounds nuw %struct.ObjectAddress, ptr %4, i32 0, i32 0
  store i32 3602, ptr %19, align 4
  %20 = load ptr, ptr %8, align 8
  %21 = getelementptr inbounds nuw %struct.FormData_pg_ts_config, ptr %20, i32 0, i32 0
  %22 = load i32, ptr %21, align 4
  %23 = getelementptr inbounds nuw %struct.ObjectAddress, ptr %4, i32 0, i32 1
  store i32 %22, ptr %23, align 4
  %24 = getelementptr inbounds nuw %struct.ObjectAddress, ptr %4, i32 0, i32 2
  store i32 0, ptr %24, align 4
  %25 = load i8, ptr %6, align 1, !range !7, !noundef !8
  %26 = trunc i8 %25 to i1
  br i1 %26, label %27, label %37

27:                                               ; preds = %3
  %28 = getelementptr inbounds nuw %struct.ObjectAddress, ptr %4, i32 0, i32 0
  %29 = load i32, ptr %28, align 4
  %30 = getelementptr inbounds nuw %struct.ObjectAddress, ptr %4, i32 0, i32 1
  %31 = load i32, ptr %30, align 4
  %32 = call i64 @deleteDependencyRecordsFor(i32 noundef %29, i32 noundef %31, i1 noundef zeroext true)
  %33 = getelementptr inbounds nuw %struct.ObjectAddress, ptr %4, i32 0, i32 0
  %34 = load i32, ptr %33, align 4
  %35 = getelementptr inbounds nuw %struct.ObjectAddress, ptr %4, i32 0, i32 1
  %36 = load i32, ptr %35, align 4
  call void @deleteSharedDependencyRecordsFor(i32 noundef %34, i32 noundef %36, i32 noundef 0)
  br label %37

37:                                               ; preds = %27, %3
  %38 = call ptr @new_object_addresses()
  store ptr %38, ptr %9, align 8
  %39 = getelementptr inbounds nuw %struct.ObjectAddress, ptr %10, i32 0, i32 0
  store i32 2615, ptr %39, align 4
  %40 = load ptr, ptr %8, align 8
  %41 = getelementptr inbounds nuw %struct.FormData_pg_ts_config, ptr %40, i32 0, i32 2
  %42 = load i32, ptr %41, align 4
  %43 = getelementptr inbounds nuw %struct.ObjectAddress, ptr %10, i32 0, i32 1
  store i32 %42, ptr %43, align 4
  %44 = getelementptr inbounds nuw %struct.ObjectAddress, ptr %10, i32 0, i32 2
  store i32 0, ptr %44, align 4
  %45 = load ptr, ptr %9, align 8
  call void @add_exact_object_address(ptr noundef %10, ptr noundef %45)
  %46 = getelementptr inbounds nuw %struct.ObjectAddress, ptr %4, i32 0, i32 0
  %47 = load i32, ptr %46, align 4
  %48 = getelementptr inbounds nuw %struct.ObjectAddress, ptr %4, i32 0, i32 1
  %49 = load i32, ptr %48, align 4
  %50 = load ptr, ptr %8, align 8
  %51 = getelementptr inbounds nuw %struct.FormData_pg_ts_config, ptr %50, i32 0, i32 3
  %52 = load i32, ptr %51, align 4
  call void @recordDependencyOnOwner(i32 noundef %47, i32 noundef %49, i32 noundef %52)
  %53 = load i8, ptr %6, align 1, !range !7, !noundef !8
  %54 = trunc i8 %53 to i1
  call void @recordDependencyOnCurrentExtension(ptr noundef %4, i1 noundef zeroext %54)
  %55 = getelementptr inbounds nuw %struct.ObjectAddress, ptr %10, i32 0, i32 0
  store i32 3601, ptr %55, align 4
  %56 = load ptr, ptr %8, align 8
  %57 = getelementptr inbounds nuw %struct.FormData_pg_ts_config, ptr %56, i32 0, i32 4
  %58 = load i32, ptr %57, align 4
  %59 = getelementptr inbounds nuw %struct.ObjectAddress, ptr %10, i32 0, i32 1
  store i32 %58, ptr %59, align 4
  %60 = getelementptr inbounds nuw %struct.ObjectAddress, ptr %10, i32 0, i32 2
  store i32 0, ptr %60, align 4
  %61 = load ptr, ptr %9, align 8
  call void @add_exact_object_address(ptr noundef %10, ptr noundef %61)
  %62 = load ptr, ptr %7, align 8
  %63 = icmp ne ptr %62, null
  br i1 %63, label %64, label %86

64:                                               ; preds = %37
  call void @llvm.lifetime.start.p0(i64 72, ptr %11) #10
  call void @llvm.lifetime.start.p0(i64 8, ptr %12) #10
  call void @llvm.lifetime.start.p0(i64 8, ptr %13) #10
  call void @CommandCounterIncrement()
  %65 = getelementptr inbounds nuw %struct.ObjectAddress, ptr %4, i32 0, i32 1
  %66 = load i32, ptr %65, align 4
  %67 = call i64 @ObjectIdGetDatum(i32 noundef %66)
  call void @ScanKeyInit(ptr noundef %11, i16 noundef signext 1, i16 noundef zeroext 3, i32 noundef 184, i64 noundef %67)
  %68 = load ptr, ptr %7, align 8
  %69 = call ptr @systable_beginscan(ptr noundef %68, i32 noundef 3609, i1 noundef zeroext true, ptr noundef null, i32 noundef 1, ptr noundef %11)
  store ptr %69, ptr %12, align 8
  br label %70

70:                                               ; preds = %74, %64
  %71 = load ptr, ptr %12, align 8
  %72 = call ptr @systable_getnext(ptr noundef %71)
  store ptr %72, ptr %13, align 8
  %73 = icmp ne ptr %72, null
  br i1 %73, label %74, label %84

74:                                               ; preds = %70
  call void @llvm.lifetime.start.p0(i64 8, ptr %14) #10
  %75 = load ptr, ptr %13, align 8
  %76 = call ptr @GETSTRUCT(ptr noundef %75)
  store ptr %76, ptr %14, align 8
  %77 = getelementptr inbounds nuw %struct.ObjectAddress, ptr %10, i32 0, i32 0
  store i32 3600, ptr %77, align 4
  %78 = load ptr, ptr %14, align 8
  %79 = getelementptr inbounds nuw %struct.FormData_pg_ts_config_map, ptr %78, i32 0, i32 3
  %80 = load i32, ptr %79, align 4
  %81 = getelementptr inbounds nuw %struct.ObjectAddress, ptr %10, i32 0, i32 1
  store i32 %80, ptr %81, align 4
  %82 = getelementptr inbounds nuw %struct.ObjectAddress, ptr %10, i32 0, i32 2
  store i32 0, ptr %82, align 4
  %83 = load ptr, ptr %9, align 8
  call void @add_exact_object_address(ptr noundef %10, ptr noundef %83)
  call void @llvm.lifetime.end.p0(i64 8, ptr %14) #10
  br label %70, !llvm.loop !19

84:                                               ; preds = %70
  %85 = load ptr, ptr %12, align 8
  call void @systable_endscan(ptr noundef %85)
  call void @llvm.lifetime.end.p0(i64 8, ptr %13) #10
  call void @llvm.lifetime.end.p0(i64 8, ptr %12) #10
  call void @llvm.lifetime.end.p0(i64 72, ptr %11) #10
  br label %86

86:                                               ; preds = %84, %37
  %87 = load ptr, ptr %9, align 8
  call void @record_object_address_dependencies(ptr noundef %4, ptr noundef %87, i32 noundef 110)
  %88 = load ptr, ptr %9, align 8
  call void @free_object_addresses(ptr noundef %88)
  call void @llvm.lifetime.end.p0(i64 12, ptr %10) #10
  call void @llvm.lifetime.end.p0(i64 8, ptr %9) #10
  call void @llvm.lifetime.end.p0(i64 8, ptr %8) #10
  call void @llvm.memcpy.p0.p0.i64(ptr align 8 %15, ptr align 4 %4, i64 12, i1 false)
  %89 = load { i64, i32 }, ptr %15, align 8
  ret { i64, i32 } %89
}