; Function Attrs: nounwind uwtable
define internal fastcc { i64, i32 } @makeConfigurationDependencies(ptr readonly captures(none) %.16.val, i1 noundef zeroext %0, ptr noundef %1) unnamed_addr #0 {
  %3 = alloca %struct.ObjectAddress, align 8
  %4 = alloca %struct.ObjectAddress, align 4
  %5 = alloca %struct.ScanKeyData, align 8
  %6 = getelementptr inbounds nuw i8, ptr %.16.val, i64 22
  %7 = load i8, ptr %6, align 2
  %8 = zext i8 %7 to i64
  %9 = getelementptr inbounds nuw i8, ptr %.16.val, i64 %8
  call void @llvm.lifetime.start.p0(i64 12, ptr nonnull %4) #10
  store i32 3602, ptr %3, align 8
  %10 = load i32, ptr %9, align 4
  %11 = getelementptr inbounds nuw i8, ptr %3, i64 4
  store i32 %10, ptr %11, align 4
  %12 = getelementptr inbounds nuw i8, ptr %3, i64 8
  store i32 0, ptr %12, align 8
  br i1 %0, label %13, label %15

13:                                               ; preds = %2
  %14 = tail call i64 @deleteDependencyRecordsFor(i32 noundef 3602, i32 noundef %10, i1 noundef zeroext true) #10
  tail call void @deleteSharedDependencyRecordsFor(i32 noundef 3602, i32 noundef %10, i32 noundef 0) #10
  br label %15

15:                                               ; preds = %13, %2
  %16 = tail call ptr @new_object_addresses() #10
  store i32 2615, ptr %4, align 4
  %17 = getelementptr inbounds nuw i8, ptr %9, i64 68
  %18 = load i32, ptr %17, align 4
  %19 = getelementptr inbounds nuw i8, ptr %4, i64 4
  store i32 %18, ptr %19, align 4
  %20 = getelementptr inbounds nuw i8, ptr %4, i64 8
  store i32 0, ptr %20, align 4
  call void @add_exact_object_address(ptr noundef nonnull %4, ptr noundef %16) #10
  %21 = getelementptr inbounds nuw i8, ptr %9, i64 72
  %22 = load i32, ptr %21, align 4
  call void @recordDependencyOnOwner(i32 noundef 3602, i32 noundef %10, i32 noundef %22) #10
  call void @recordDependencyOnCurrentExtension(ptr noundef nonnull %3, i1 noundef zeroext %0) #10
  store i32 3601, ptr %4, align 4
  %23 = getelementptr inbounds nuw i8, ptr %9, i64 76
  %24 = load i32, ptr %23, align 4
  store i32 %24, ptr %19, align 4
  store i32 0, ptr %20, align 4
  call void @add_exact_object_address(ptr noundef nonnull %4, ptr noundef %16) #10
  %.not = icmp eq ptr %1, null
  br i1 %.not, label %39, label %25

25:                                               ; preds = %15
  call void @llvm.lifetime.start.p0(i64 72, ptr nonnull %5) #10
  call void @CommandCounterIncrement() #10
  %26 = load i32, ptr %11, align 4
  %27 = zext i32 %26 to i64
  call void @ScanKeyInit(ptr noundef nonnull %5, i16 noundef signext 1, i16 noundef zeroext 3, i32 noundef 184, i64 noundef %27) #10
  %28 = call ptr @systable_beginscan(ptr noundef nonnull %1, i32 noundef 3609, i1 noundef zeroext true, ptr noundef null, i32 noundef 1, ptr noundef nonnull %5) #10
  %29 = call ptr @systable_getnext(ptr noundef %28) #10
  %.not181 = icmp eq ptr %29, null
  br i1 %.not181, label %._crit_edge, label %.lr.ph

.lr.ph:                                           ; preds = %25, %.lr.ph
  %30 = phi ptr [ %38, %.lr.ph ], [ %29, %25 ]
  %31 = getelementptr i8, ptr %30, i64 16
  %.val = load ptr, ptr %31, align 8
  %32 = getelementptr inbounds nuw i8, ptr %.val, i64 22
  %33 = load i8, ptr %32, align 2
  %34 = zext i8 %33 to i64
  %35 = getelementptr inbounds nuw i8, ptr %.val, i64 %34
  store i32 3600, ptr %4, align 4
  %36 = getelementptr inbounds nuw i8, ptr %35, i64 12
  %37 = load i32, ptr %36, align 4
  store i32 %37, ptr %19, align 4
  store i32 0, ptr %20, align 4
  call void @add_exact_object_address(ptr noundef nonnull %4, ptr noundef %16) #10
  %38 = call ptr @systable_getnext(ptr noundef %28) #10
  %.not18 = icmp eq ptr %38, null
  br i1 %.not18, label %._crit_edge, label %.lr.ph, !llvm.loop !12

._crit_edge:                                      ; preds = %.lr.ph, %25
  call void @systable_endscan(ptr noundef %28) #10
  call void @llvm.lifetime.end.p0(i64 72, ptr nonnull %5) #10
  br label %39

39:                                               ; preds = %._crit_edge, %15
  call void @record_object_address_dependencies(ptr noundef nonnull %3, ptr noundef %16, i32 noundef 110) #10
  call void @free_object_addresses(ptr noundef %16) #10
  call void @llvm.lifetime.end.p0(i64 12, ptr nonnull %4) #10
  %.sroa.0.0.copyload = load i64, ptr %3, align 8
  %.sroa.2.0.copyload = load i32, ptr %12, align 8
  %.fca.0.insert = insertvalue { i64, i32 } poison, i64 %.sroa.0.0.copyload, 0
  %.fca.1.insert = insertvalue { i64, i32 } %.fca.0.insert, i32 %.sroa.2.0.copyload, 1
  ret { i64, i32 } %.fca.1.insert
}